target datalayout = "e-m:e-p270:32:32-p271:32:32-p272:64:64-i64:64-i128:128-f80:128-n8:16:32:64-S128"
target triple = "x86_64-unknown-linux-gnu"

%"struct.duckdb::BoundCastInfo" = type { ptr, ptr, %"class.duckdb::unique_ptr.30" }
%"class.duckdb::unique_ptr.30" = type { %"class.std::unique_ptr.31" }
%"class.std::unique_ptr.31" = type { %"struct.std::__uniq_ptr_data.32" }
%"struct.std::__uniq_ptr_data.32" = type { %"class.std::__uniq_ptr_impl.33" }
%"class.std::__uniq_ptr_impl.33" = type { %"class.std::tuple.34" }
%"class.std::tuple.34" = type { %"struct.std::_Tuple_impl.35" }
%"struct.std::_Tuple_impl.35" = type { %"struct.std::_Head_base.38" }
%"struct.std::_Head_base.38" = type { ptr }

; Function Attrs: mustprogress uwtable
define void @_ZN6duckdb17StructToUnionCast4BindERNS_13BindCastInputERKNS_11LogicalTypeES5_(ptr dead_on_unwind noalias writable sret(%"struct.duckdb::BoundCastInfo") align 8 %agg.result, ptr noundef nonnull align 8 dereferenceable(24) %input, ptr noundef nonnull align 8 dereferenceable(24) %source, ptr noundef nonnull align 8 dereferenceable(24) %target) local_unnamed_addr #0 align 2 personality ptr @__gxx_personality_v0 {
entry:
  %cast_data = alloca %"class.duckdb::unique_ptr.30", align 8
  %agg.tmp = alloca %"class.duckdb::unique_ptr.30", align 8
  call void @llvm.lifetime.start.p0(i64 8, ptr nonnull %cast_data) #16
  call void @_ZN6duckdb17StructToUnionCast8BindDataERNS_13BindCastInputERKNS_11LogicalTypeES5_(ptr dead_on_unwind nonnull writable sret(%"class.duckdb::unique_ptr.30") align 8 %cast_data, ptr noundef nonnull align 8 dereferenceable(24) %input, ptr noundef nonnull align 8 dereferenceable(24) %source, ptr noundef nonnull align 8 dereferenceable(24) %target)
  %0 = load i64, ptr %cast_data, align 8, !tbaa !18
  store i64 %0, ptr %agg.tmp, align 8, !tbaa !18
  invoke void @_ZN6duckdb13BoundCastInfoC1EPFbRNS_6VectorES2_mRNS_14CastParametersEENS_10unique_ptrINS_13BoundCastDataESt14default_deleteIS8_ELb1EEEPFNS7_INS_18FunctionLocalStateES9_ISC_ELb1EEERNS_24CastLocalStateParametersEE(ptr noundef nonnull align 8 dereferenceable(24) %agg.result, ptr noundef nonnull @_ZN6duckdb17StructToUnionCast4CastERNS_6VectorES2_mRNS_14CastParametersE, ptr noundef nonnull %agg.tmp, ptr noundef nonnull @_ZN6duckdb19StructBoundCastData24InitStructCastLocalStateERNS_24CastLocalStateParametersE)
          to label %invoke.cont unwind label %lpad

invoke.cont:                                      ; preds = %entry
  %1 = load ptr, ptr %agg.tmp, align 8, !tbaa !18
  %cmp.not.i = icmp eq ptr %1, null
  br i1 %cmp.not.i, label %_ZNSt10unique_ptrIN6duckdb13BoundCastDataESt14default_deleteIS1_EED2Ev.exit6, label %_ZNKSt14default_deleteIN6duckdb13BoundCastDataEEclEPS1_.exit.i

_ZNKSt14default_deleteIN6duckdb13BoundCastDataEEclEPS1_.exit.i: ; preds = %invoke.cont
  %vtable.i.i = load ptr, ptr %1, align 8, !tbaa !70
  %vfn.i.i = getelementptr inbounds i8, ptr %vtable.i.i, i64 8
  %2 = load ptr, ptr %vfn.i.i, align 8
  call void %2(ptr noundef nonnull align 8 dereferenceable(8) %1) #16
  br label %_ZNSt10unique_ptrIN6duckdb13BoundCastDataESt14default_deleteIS1_EED2Ev.exit6

_ZNSt10unique_ptrIN6duckdb13BoundCastDataESt14default_deleteIS1_EED2Ev.exit6: ; preds = %_ZNKSt14default_deleteIN6duckdb13BoundCastDataEEclEPS1_.exit.i, %invoke.cont
  call void @llvm.lifetime.end.p0(i64 8, ptr nonnull %cast_data) #16
  ret void

lpad:                                             ; preds = %entry
  %3 = landingpad { ptr, i32 }
          cleanup
  %4 = load ptr, ptr %agg.tmp, align 8, !tbaa !18
  %cmp.not.i7 = icmp eq ptr %4, null
  br i1 %cmp.not.i7, label %_ZNSt10unique_ptrIN6duckdb13BoundCastDataESt14default_deleteIS1_EED2Ev.exit16, label %_ZNKSt14default_deleteIN6duckdb13BoundCastDataEEclEPS1_.exit.i8

_ZNKSt14default_deleteIN6duckdb13BoundCastDataEEclEPS1_.exit.i8: ; preds = %lpad
  %vtable.i.i9 = load ptr, ptr %4, align 8, !tbaa !70
  %vfn.i.i10 = getelementptr inbounds i8, ptr %vtable.i.i9, i64 8
  %5 = load ptr, ptr %vfn.i.i10, align 8
  call void %5(ptr noundef nonnull align 8 dereferenceable(8) %4) #16
  br label %_ZNSt10unique_ptrIN6duckdb13BoundCastDataESt14default_deleteIS1_EED2Ev.exit16

_ZNSt10unique_ptrIN6duckdb13BoundCastDataESt14default_deleteIS1_EED2Ev.exit16: ; preds = %_ZNKSt14default_deleteIN6duckdb13BoundCastDataEEclEPS1_.exit.i8, %lpad
  call void @llvm.lifetime.end.p0(i64 8, ptr nonnull %cast_data) #16
  resume { ptr, i32 } %3
}