; Function Attrs: mustprogress uwtable
define void @_ZN6duckdb17StructToUnionCast4BindERNS_13BindCastInputERKNS_11LogicalTypeES5_(ptr dead_on_unwind noalias writable sret(%"struct.duckdb::BoundCastInfo") align 8 %agg.result, ptr noundef nonnull align 8 dereferenceable(24) %input, ptr noundef nonnull align 8 dereferenceable(24) %source, ptr noundef nonnull align 8 dereferenceable(24) %target) local_unnamed_addr #0 align 2 personality ptr @__gxx_personality_v0 {
entry:
  %agg.tmp = alloca %"class.duckdb::unique_ptr.30", align 8
  call void @_ZN6duckdb17StructToUnionCast8BindDataERNS_13BindCastInputERKNS_11LogicalTypeES5_(ptr dead_on_unwind nonnull writable sret(%"class.duckdb::unique_ptr.30") align 8 %agg.tmp, ptr noundef nonnull align 8 dereferenceable(24) %input, ptr noundef nonnull align 8 dereferenceable(24) %source, ptr noundef nonnull align 8 dereferenceable(24) %target)
  invoke void @_ZN6duckdb13BoundCastInfoC1EPFbRNS_6VectorES2_mRNS_14CastParametersEENS_10unique_ptrINS_13BoundCastDataESt14default_deleteIS8_ELb1EEEPFNS7_INS_18FunctionLocalStateES9_ISC_ELb1EEERNS_24CastLocalStateParametersEE(ptr noundef nonnull align 8 dereferenceable(24) %agg.result, ptr noundef nonnull @_ZN6duckdb17StructToUnionCast4CastERNS_6VectorES2_mRNS_14CastParametersE, ptr noundef nonnull %agg.tmp, ptr noundef nonnull @_ZN6duckdb19StructBoundCastData24InitStructCastLocalStateERNS_24CastLocalStateParametersE)
          to label %invoke.cont unwind label %lpad

invoke.cont:                                      ; preds = %entry
  %0 = load ptr, ptr %agg.tmp, align 8, !tbaa !18
  %cmp.not.i = icmp eq ptr %0, null
  br i1 %cmp.not.i, label %_ZNSt10unique_ptrIN6duckdb13BoundCastDataESt14default_deleteIS1_EED2Ev.exit6, label %_ZNKSt14default_deleteIN6duckdb13BoundCastDataEEclEPS1_.exit.i

_ZNKSt14default_deleteIN6duckdb13BoundCastDataEEclEPS1_.exit.i: ; preds = %invoke.cont
  %vtable.i.i = load ptr, ptr %0, align 8, !tbaa !70
  %vfn.i.i = getelementptr inbounds i8, ptr %vtable.i.i, i64 8
  %1 = load ptr, ptr %vfn.i.i, align 8
  call void %1(ptr noundef nonnull align 8 dereferenceable(8) %0) #16
  br label %_ZNSt10unique_ptrIN6duckdb13BoundCastDataESt14default_deleteIS1_EED2Ev.exit6

_ZNSt10unique_ptrIN6duckdb13BoundCastDataESt14default_deleteIS1_EED2Ev.exit6: ; preds = %_ZNKSt14default_deleteIN6duckdb13BoundCastDataEEclEPS1_.exit.i, %invoke.cont
  ret void

lpad:                                             ; preds = %entry
  %2 = landingpad { ptr, i32 }
          cleanup
  %3 = load ptr, ptr %agg.tmp, align 8, !tbaa !18
  %cmp.not.i7 = icmp eq ptr %3, null
  br i1 %cmp.not.i7, label %_ZNSt10unique_ptrIN6duckdb13BoundCastDataESt14default_deleteIS1_EED2Ev.exit16, label %_ZNKSt14default_deleteIN6duckdb13BoundCastDataEEclEPS1_.exit.i8

_ZNKSt14default_deleteIN6duckdb13BoundCastDataEEclEPS1_.exit.i8: ; preds = %lpad
  %vtable.i.i9 = load ptr, ptr %3, align 8, !tbaa !70
  %vfn.i.i10 = getelementptr inbounds i8, ptr %vtable.i.i9, i64 8
  %4 = load ptr, ptr %vfn.i.i10, align 8
  call void %4(ptr noundef nonnull align 8 dereferenceable(8) %3) #16
  br label %_ZNSt10unique_ptrIN6duckdb13BoundCastDataESt14default_deleteIS1_EED2Ev.exit16

_ZNSt10unique_ptrIN6duckdb13BoundCastDataESt14default_deleteIS1_EED2Ev.exit16: ; preds = %_ZNKSt14default_deleteIN6duckdb13BoundCastDataEEclEPS1_.exit.i8, %lpad
  resume { ptr, i32 } %2
}